target datalayout = "e-m:e-p270:32:32-p271:32:32-p272:64:64-i64:64-i128:128-f80:128-n8:16:32:64-S128"
target triple = "x86_64-pc-linux-gnu"

@hf_bitcoin_msg_getdata = internal global i32 0, align 4
@hf_msg_getdata_count8 = internal global i32 0, align 4
@hf_msg_getdata_count16 = internal global i32 0, align 4
@hf_msg_getdata_count32 = internal global i32 0, align 4
@hf_msg_getdata_count64 = internal global i32 0, align 4
@hf_msg_getdata_type = internal global i32 0, align 4
@hf_msg_getdata_hash = internal global i32 0, align 4
@ett_bitcoin_msg = internal global i32 0, align 4
@ett_getdata_list = internal global i32 0, align 4
@.str.320 = private unnamed_addr constant [17 x i8] c"Inventory vector\00", align 1

; Function Attrs: null_pointer_is_valid sspstrong uwtable
define internal void @add_varint_item(ptr noundef %0, ptr noundef %1, i32 noundef %2, i32 noundef %3, i32 noundef %4, i32 noundef %5, i32 noundef %6, i32 noundef %7) #0 {
  %9 = alloca ptr, align 8
  %10 = alloca ptr, align 8
  %11 = alloca i32, align 4
  %12 = alloca i32, align 4
  %13 = alloca i32, align 4
  %14 = alloca i32, align 4
  %15 = alloca i32, align 4
  %16 = alloca i32, align 4
  store ptr %0, ptr %9, align 8
  store ptr %1, ptr %10, align 8
  store i32 %2, ptr %11, align 4
  store i32 %3, ptr %12, align 4
  store i32 %4, ptr %13, align 4
  store i32 %5, ptr %14, align 4
  store i32 %6, ptr %15, align 4
  store i32 %7, ptr %16, align 4
  %17 = load i32, ptr %12, align 4
  switch i32 %17, label %45 [
    i32 1, label %18
    i32 3, label %24
    i32 5, label %31
    i32 9, label %38
  ]

18:                                               ; preds = %8
  %19 = load ptr, ptr %9, align 8
  %20 = load i32, ptr %13, align 4
  %21 = load ptr, ptr %10, align 8
  %22 = load i32, ptr %11, align 4
  %23 = call ptr @proto_tree_add_item(ptr noundef %19, i32 noundef %20, ptr noundef %21, i32 noundef %22, i32 noundef 1, i32 noundef -2147483648)
  br label %45

24:                                               ; preds = %8
  %25 = load ptr, ptr %9, align 8
  %26 = load i32, ptr %14, align 4
  %27 = load ptr, ptr %10, align 8
  %28 = load i32, ptr %11, align 4
  %29 = add i32 %28, 1
  %30 = call ptr @proto_tree_add_item(ptr noundef %25, i32 noundef %26, ptr noundef %27, i32 noundef %29, i32 noundef 2, i32 noundef -2147483648)
  br label %45

31:                                               ; preds = %8
  %32 = load ptr, ptr %9, align 8
  %33 = load i32, ptr %15, align 4
  %34 = load ptr, ptr %10, align 8
  %35 = load i32, ptr %11, align 4
  %36 = add i32 %35, 1
  %37 = call ptr @proto_tree_add_item(ptr noundef %32, i32 noundef %33, ptr noundef %34, i32 noundef %36, i32 noundef 4, i32 noundef -2147483648)
  br label %45

38:                                               ; preds = %8
  %39 = load ptr, ptr %9, align 8
  %40 = load i32, ptr %16, align 4
  %41 = load ptr, ptr %10, align 8
  %42 = load i32, ptr %11, align 4
  %43 = add i32 %42, 1
  %44 = call ptr @proto_tree_add_item(ptr noundef %39, i32 noundef %40, ptr noundef %41, i32 noundef %43, i32 noundef 8, i32 noundef -2147483648)
  br label %45

45:                                               ; preds = %8, %38, %31, %24, %18
  ret void
}

; Function Attrs: null_pointer_is_valid sspstrong uwtable
define internal void @get_varint(ptr noundef %0, i32 noundef %1, ptr noundef %2, ptr noundef %3) #0 {
  %5 = alloca ptr, align 8
  %6 = alloca i32, align 4
  %7 = alloca ptr, align 8
  %8 = alloca ptr, align 8
  %9 = alloca i32, align 4
  %10 = alloca i32, align 4
  store ptr %0, ptr %5, align 8
  store i32 %1, ptr %6, align 4
  store ptr %2, ptr %7, align 8
  store ptr %3, ptr %8, align 8
  call void @llvm.lifetime.start.p0(i64 4, ptr %9) #4
  %11 = load ptr, ptr %5, align 8
  %12 = load i32, ptr %6, align 4
  %13 = call zeroext i8 @tvb_get_uint8(ptr noundef %11, i32 noundef %12)
  %14 = zext i8 %13 to i32
  store i32 %14, ptr %9, align 4
  %15 = load i32, ptr %9, align 4
  %16 = icmp ult i32 %15, 253
  br i1 %16, label %17, label %22

17:                                               ; preds = %4
  %18 = load ptr, ptr %7, align 8
  store i32 1, ptr %18, align 4
  %19 = load i32, ptr %9, align 4
  %20 = zext i32 %19 to i64
  %21 = load ptr, ptr %8, align 8
  store i64 %20, ptr %21, align 8
  store i32 1, ptr %10, align 4
  br label %51

22:                                               ; preds = %4
  %23 = load i32, ptr %9, align 4
  %24 = icmp eq i32 %23, 253
  br i1 %24, label %25, label %33

25:                                               ; preds = %22
  %26 = load ptr, ptr %7, align 8
  store i32 3, ptr %26, align 4
  %27 = load ptr, ptr %5, align 8
  %28 = load i32, ptr %6, align 4
  %29 = add i32 %28, 1
  %30 = call zeroext i16 @tvb_get_letohs(ptr noundef %27, i32 noundef %29)
  %31 = zext i16 %30 to i64
  %32 = load ptr, ptr %8, align 8
  store i64 %31, ptr %32, align 8
  store i32 1, ptr %10, align 4
  br label %51

33:                                               ; preds = %22
  %34 = load i32, ptr %9, align 4
  %35 = icmp eq i32 %34, 254
  br i1 %35, label %36, label %44

36:                                               ; preds = %33
  %37 = load ptr, ptr %7, align 8
  store i32 5, ptr %37, align 4
  %38 = load ptr, ptr %5, align 8
  %39 = load i32, ptr %6, align 4
  %40 = add i32 %39, 1
  %41 = call i32 @tvb_get_letohl(ptr noundef %38, i32 noundef %40)
  %42 = zext i32 %41 to i64
  %43 = load ptr, ptr %8, align 8
  store i64 %42, ptr %43, align 8
  store i32 1, ptr %10, align 4
  br label %51

44:                                               ; preds = %33
  %45 = load ptr, ptr %7, align 8
  store i32 9, ptr %45, align 4
  %46 = load ptr, ptr %5, align 8
  %47 = load i32, ptr %6, align 4
  %48 = add i32 %47, 1
  %49 = call i64 @tvb_get_letoh64(ptr noundef %46, i32 noundef %48)
  %50 = load ptr, ptr %8, align 8
  store i64 %49, ptr %50, align 8
  store i32 1, ptr %10, align 4
  br label %51

51:                                               ; preds = %44, %36, %25, %17
  call void @llvm.lifetime.end.p0(i64 4, ptr %9) #4
  ret void
}

; Function Attrs: null_pointer_is_valid sspstrong uwtable
define internal i32 @dissect_bitcoin_msg_getdata(ptr noundef %0, ptr noundef %1, ptr noundef %2, ptr noundef %3) #0 {
  %5 = alloca ptr, align 8
  %6 = alloca ptr, align 8
  %7 = alloca ptr, align 8
  %8 = alloca ptr, align 8
  %9 = alloca ptr, align 8
  %10 = alloca i32, align 4
  %11 = alloca i64, align 8
  %12 = alloca i32, align 4
  %13 = alloca ptr, align 8
  store ptr %0, ptr %5, align 8
  store ptr %1, ptr %6, align 8
  store ptr %2, ptr %7, align 8
  store ptr %3, ptr %8, align 8
  call void @llvm.lifetime.start.p0(i64 8, ptr %9) #4
  call void @llvm.lifetime.start.p0(i64 4, ptr %10) #4
  call void @llvm.lifetime.start.p0(i64 8, ptr %11) #4
  call void @llvm.lifetime.start.p0(i64 4, ptr %12) #4
  store i32 0, ptr %12, align 4
  %14 = load ptr, ptr %7, align 8
  %15 = load i32, ptr @hf_bitcoin_msg_getdata, align 4
  %16 = load ptr, ptr %5, align 8
  %17 = load i32, ptr %12, align 4
  %18 = call ptr @proto_tree_add_item(ptr noundef %14, i32 noundef %15, ptr noundef %16, i32 noundef %17, i32 noundef -1, i32 noundef 0)
  store ptr %18, ptr %9, align 8
  %19 = load ptr, ptr %9, align 8
  %20 = load i32, ptr @ett_bitcoin_msg, align 4
  %21 = call ptr @proto_item_add_subtree(ptr noundef %19, i32 noundef %20)
  store ptr %21, ptr %7, align 8
  %22 = load ptr, ptr %5, align 8
  %23 = load i32, ptr %12, align 4
  call void @get_varint(ptr noundef %22, i32 noundef %23, ptr noundef %10, ptr noundef %11)
  %24 = load ptr, ptr %7, align 8
  %25 = load ptr, ptr %5, align 8
  %26 = load i32, ptr %12, align 4
  %27 = load i32, ptr %10, align 4
  %28 = load i32, ptr @hf_msg_getdata_count8, align 4
  %29 = load i32, ptr @hf_msg_getdata_count16, align 4
  %30 = load i32, ptr @hf_msg_getdata_count32, align 4
  %31 = load i32, ptr @hf_msg_getdata_count64, align 4
  call void @add_varint_item(ptr noundef %24, ptr noundef %25, i32 noundef %26, i32 noundef %27, i32 noundef %28, i32 noundef %29, i32 noundef %30, i32 noundef %31)
  %32 = load i32, ptr %10, align 4
  %33 = load i32, ptr %12, align 4
  %34 = add i32 %33, %32
  store i32 %34, ptr %12, align 4
  br label %35

35:                                               ; preds = %58, %4
  %36 = load i64, ptr %11, align 8
  %37 = icmp ugt i64 %36, 0
  br i1 %37, label %38, label %61

38:                                               ; preds = %35
  call void @llvm.lifetime.start.p0(i64 8, ptr %13) #4
  %39 = load ptr, ptr %7, align 8
  %40 = load ptr, ptr %5, align 8
  %41 = load i32, ptr %12, align 4
  %42 = load i32, ptr @ett_getdata_list, align 4
  %43 = call ptr @proto_tree_add_subtree(ptr noundef %39, ptr noundef %40, i32 noundef %41, i32 noundef 36, i32 noundef %42, ptr noundef null, ptr noundef @.str.320)
  store ptr %43, ptr %13, align 8
  %44 = load ptr, ptr %13, align 8
  %45 = load i32, ptr @hf_msg_getdata_type, align 4
  %46 = load ptr, ptr %5, align 8
  %47 = load i32, ptr %12, align 4
  %48 = call ptr @proto_tree_add_item(ptr noundef %44, i32 noundef %45, ptr noundef %46, i32 noundef %47, i32 noundef 4, i32 noundef -2147483648)
  %49 = load i32, ptr %12, align 4
  %50 = add i32 %49, 4
  store i32 %50, ptr %12, align 4
  %51 = load ptr, ptr %13, align 8
  %52 = load i32, ptr @hf_msg_getdata_hash, align 4
  %53 = load ptr, ptr %5, align 8
  %54 = load i32, ptr %12, align 4
  %55 = call ptr @proto_tree_add_item(ptr noundef %51, i32 noundef %52, ptr noundef %53, i32 noundef %54, i32 noundef 32, i32 noundef 0)
  %56 = load i32, ptr %12, align 4
  %57 = add i32 %56, 32
  store i32 %57, ptr %12, align 4
  call void @llvm.lifetime.end.p0(i64 8, ptr %13) #4
  br label %58

58:                                               ; preds = %38
  %59 = load i64, ptr %11, align 8
  %60 = add i64 %59, -1
  store i64 %60, ptr %11, align 8
  br label %35, !llvm.loop !12

61:                                               ; preds = %35
  %62 = load i32, ptr %12, align 4
  call void @llvm.lifetime.end.p0(i64 4, ptr %12) #4
  call void @llvm.lifetime.end.p0(i64 8, ptr %11) #4
  call void @llvm.lifetime.end.p0(i64 4, ptr %10) #4
  call void @llvm.lifetime.end.p0(i64 8, ptr %9) #4
  ret i32 %62
}