; Function Attrs: null_pointer_is_valid sspstrong uwtable
define internal noundef i32 @dissect_bitcoin_msg_getdata(ptr noundef %0, ptr readnone captures(none) %1, ptr noundef %2, ptr readnone captures(none) %3) #0 {
  %5 = load i32, ptr @hf_bitcoin_msg_getdata, align 4
  %6 = tail call ptr @proto_tree_add_item(ptr noundef %2, i32 noundef %5, ptr noundef %0, i32 noundef 0, i32 noundef -1, i32 noundef 0)
  %7 = load i32, ptr @ett_bitcoin_msg, align 4
  %8 = tail call ptr @proto_item_add_subtree(ptr noundef %6, i32 noundef %7)
  %9 = tail call zeroext i8 @tvb_get_uint8(ptr noundef %0, i32 noundef 0)
  %10 = icmp ult i8 %9, -3
  br i1 %10, label %12, label %11

11:                                               ; preds = %4
  switch i8 %9, label %26 [
    i8 -3, label %16
    i8 -2, label %21
  ]

12:                                               ; preds = %4
  %13 = zext i8 %9 to i64
  %14 = load i32, ptr @hf_msg_getdata_count8, align 4
  %15 = tail call ptr @proto_tree_add_item(ptr noundef %8, i32 noundef %14, ptr noundef %0, i32 noundef 0, i32 noundef 1, i32 noundef -2147483648)
  br label %add_varint_item.exit

16:                                               ; preds = %11
  %17 = tail call zeroext i16 @tvb_get_letohs(ptr noundef %0, i32 noundef 1)
  %18 = zext i16 %17 to i64
  %19 = load i32, ptr @hf_msg_getdata_count16, align 4
  %20 = tail call ptr @proto_tree_add_item(ptr noundef %8, i32 noundef %19, ptr noundef %0, i32 noundef 1, i32 noundef 2, i32 noundef -2147483648)
  br label %add_varint_item.exit

21:                                               ; preds = %11
  %22 = tail call i32 @tvb_get_letohl(ptr noundef %0, i32 noundef 1)
  %23 = zext i32 %22 to i64
  %24 = load i32, ptr @hf_msg_getdata_count32, align 4
  %25 = tail call ptr @proto_tree_add_item(ptr noundef %8, i32 noundef %24, ptr noundef %0, i32 noundef 1, i32 noundef 4, i32 noundef -2147483648)
  br label %add_varint_item.exit

26:                                               ; preds = %11
  %27 = tail call i64 @tvb_get_letoh64(ptr noundef %0, i32 noundef 1)
  %28 = load i32, ptr @hf_msg_getdata_count64, align 4
  %29 = tail call ptr @proto_tree_add_item(ptr noundef %8, i32 noundef %28, ptr noundef %0, i32 noundef 1, i32 noundef 8, i32 noundef -2147483648)
  br label %add_varint_item.exit

add_varint_item.exit:                             ; preds = %12, %16, %21, %26
  %.sink.i31 = phi i64 [ %13, %12 ], [ %18, %16 ], [ %23, %21 ], [ %27, %26 ]
  %.02529 = phi i32 [ 1, %12 ], [ 3, %16 ], [ 5, %21 ], [ 9, %26 ]
  %.not42 = icmp eq i64 %.sink.i31, 0
  br i1 %.not42, label %._crit_edge, label %.lr.ph

.lr.ph:                                           ; preds = %add_varint_item.exit, %.lr.ph
  %.044 = phi i32 [ %37, %.lr.ph ], [ %.02529, %add_varint_item.exit ]
  %.02443 = phi i64 [ %38, %.lr.ph ], [ %.sink.i31, %add_varint_item.exit ]
  %30 = load i32, ptr @ett_getdata_list, align 4
  %31 = tail call ptr @proto_tree_add_subtree(ptr noundef %8, ptr noundef %0, i32 noundef %.044, i32 noundef 36, i32 noundef %30, ptr noundef null, ptr noundef nonnull @.str.320)
  %32 = load i32, ptr @hf_msg_getdata_type, align 4
  %33 = tail call ptr @proto_tree_add_item(ptr noundef %31, i32 noundef %32, ptr noundef %0, i32 noundef %.044, i32 noundef 4, i32 noundef -2147483648)
  %34 = add i32 %.044, 4
  %35 = load i32, ptr @hf_msg_getdata_hash, align 4
  %36 = tail call ptr @proto_tree_add_item(ptr noundef %31, i32 noundef %35, ptr noundef %0, i32 noundef %34, i32 noundef 32, i32 noundef 0)
  %37 = add i32 %.044, 36
  %38 = add i64 %.02443, -1
  %.not = icmp eq i64 %38, 0
  br i1 %.not, label %._crit_edge, label %.lr.ph, !llvm.loop !12

._crit_edge:                                      ; preds = %.lr.ph, %add_varint_item.exit
  %.0.lcssa = phi i32 [ %.02529, %add_varint_item.exit ], [ %37, %.lr.ph ]
  ret i32 %.0.lcssa
}